target datalayout = "e-m:e-p270:32:32-p271:32:32-p272:64:64-i64:64-i128:128-f80:128-n8:16:32:64-S128"
target triple = "x86_64-pc-linux-gnu"

%struct.MB_MODE_INFO = type <{ i8, i8, i8, i8, i32, [2 x %union.int_mv], [2 x i8], [2 x i8], %union.int_interpfilters, i8, i8, i8, i8, %struct.WarpedMotionParams, i8, i8, [6 x i8], %struct.INTERINTER_COMPOUND_DATA, [2 x i8], %struct.FILTER_INTRA_MODE_INFO, i8, i8, %struct.PALETTE_MODE_INFO, i8, i8, [16 x i8], i8, [4 x i8], i16, [7 x i8] }>
%union.int_mv = type { i32 }
%union.int_interpfilters = type { i32 }
%struct.WarpedMotionParams = type { [8 x i32], i16, i16, i16, i16, i8, i8 }
%struct.INTERINTER_COMPOUND_DATA = type { ptr, i8, i8, i8, i8 }
%struct.FILTER_INTRA_MODE_INFO = type { i8, i8 }
%struct.PALETTE_MODE_INFO = type { [24 x i16], [2 x i8] }

; Function Attrs: nounwind uwtable
define hidden zeroext i8 @av1_above_block_mode(ptr noundef %0) #0 {
  %2 = alloca i8, align 1
  %3 = alloca ptr, align 8
  store ptr %0, ptr %3, align 8
  %4 = load ptr, ptr %3, align 8
  %5 = icmp ne ptr %4, null
  br i1 %5, label %7, label %6

6:                                                ; preds = %1
  store i8 0, ptr %2, align 1
  br label %11

7:                                                ; preds = %1
  %8 = load ptr, ptr %3, align 8
  %9 = getelementptr inbounds nuw %struct.MB_MODE_INFO, ptr %8, i32 0, i32 2
  %10 = load i8, ptr %9, align 2
  store i8 %10, ptr %2, align 1
  br label %11

11:                                               ; preds = %7, %6
  %12 = load i8, ptr %2, align 1
  ret i8 %12
}